target datalayout = "e-m:e-p270:32:32-p271:32:32-p272:64:64-i64:64-i128:128-f80:128-n8:16:32:64-S128"
target triple = "x86_64-pc-linux-gnu"

; Function Attrs: mustprogress uwtable
define noundef i64 @_ZN6duckdb19utf8proc_map_customEPKhlPPhNS_17utf8proc_option_tEPFiiPvES5_(ptr noundef %0, i64 noundef %1, ptr noundef %2, i32 noundef %3, ptr noundef %4, ptr noundef %5) #2 {
  %7 = alloca i64, align 8
  %8 = alloca ptr, align 8
  %9 = alloca i64, align 8
  %10 = alloca ptr, align 8
  %11 = alloca i32, align 4
  %12 = alloca ptr, align 8
  %13 = alloca ptr, align 8
  %14 = alloca ptr, align 8
  %15 = alloca i64, align 8
  %16 = alloca i32, align 4
  %17 = alloca ptr, align 8
  store ptr %0, ptr %8, align 8, !tbaa !7
  store i64 %1, ptr %9, align 8, !tbaa !3
  store ptr %2, ptr %10, align 8, !tbaa !46
  store i32 %3, ptr %11, align 4, !tbaa !30
  store ptr %4, ptr %12, align 8, !tbaa !37
  store ptr %5, ptr %13, align 8, !tbaa !37
  call void @llvm.lifetime.start.p0(i64 8, ptr %14) #6
  call void @llvm.lifetime.start.p0(i64 8, ptr %15) #6
  %18 = load ptr, ptr %10, align 8, !tbaa !46
  store ptr null, ptr %18, align 8, !tbaa !7
  %19 = load ptr, ptr %8, align 8, !tbaa !7
  %20 = load i64, ptr %9, align 8, !tbaa !3
  %21 = load i32, ptr %11, align 4, !tbaa !30
  %22 = load ptr, ptr %12, align 8, !tbaa !37
  %23 = load ptr, ptr %13, align 8, !tbaa !37
  %24 = call noundef i64 @_ZN6duckdb25utf8proc_decompose_customEPKhlPilNS_17utf8proc_option_tEPFiiPvES4_(ptr noundef %19, i64 noundef %20, ptr noundef null, i64 noundef 0, i32 noundef %21, ptr noundef %22, ptr noundef %23)
  store i64 %24, ptr %15, align 8, !tbaa !3
  %25 = load i64, ptr %15, align 8, !tbaa !3
  %26 = icmp slt i64 %25, 0
  br i1 %26, label %27, label %29

27:                                               ; preds = %6
  %28 = load i64, ptr %15, align 8, !tbaa !3
  store i64 %28, ptr %7, align 8
  store i32 1, ptr %16, align 4
  br label %74

29:                                               ; preds = %6
  %30 = load i64, ptr %15, align 8, !tbaa !3
  %31 = mul i64 %30, 4
  %32 = add i64 %31, 1
  %33 = call noalias ptr @malloc(i64 noundef %32) #7
  store ptr %33, ptr %14, align 8, !tbaa !10
  %34 = load ptr, ptr %14, align 8, !tbaa !10
  %35 = icmp ne ptr %34, null
  br i1 %35, label %37, label %36

36:                                               ; preds = %29
  store i64 -1, ptr %7, align 8
  store i32 1, ptr %16, align 4
  br label %74

37:                                               ; preds = %29
  %38 = load ptr, ptr %8, align 8, !tbaa !7
  %39 = load i64, ptr %9, align 8, !tbaa !3
  %40 = load ptr, ptr %14, align 8, !tbaa !10
  %41 = load i64, ptr %15, align 8, !tbaa !3
  %42 = load i32, ptr %11, align 4, !tbaa !30
  %43 = load ptr, ptr %12, align 8, !tbaa !37
  %44 = load ptr, ptr %13, align 8, !tbaa !37
  %45 = call noundef i64 @_ZN6duckdb25utf8proc_decompose_customEPKhlPilNS_17utf8proc_option_tEPFiiPvES4_(ptr noundef %38, i64 noundef %39, ptr noundef %40, i64 noundef %41, i32 noundef %42, ptr noundef %43, ptr noundef %44)
  store i64 %45, ptr %15, align 8, !tbaa !3
  %46 = load i64, ptr %15, align 8, !tbaa !3
  %47 = icmp slt i64 %46, 0
  br i1 %47, label %48, label %51

48:                                               ; preds = %37
  %49 = load ptr, ptr %14, align 8, !tbaa !10
  call void @free(ptr noundef %49) #6
  %50 = load i64, ptr %15, align 8, !tbaa !3
  store i64 %50, ptr %7, align 8
  store i32 1, ptr %16, align 4
  br label %74

51:                                               ; preds = %37
  %52 = load ptr, ptr %14, align 8, !tbaa !10
  %53 = load i64, ptr %15, align 8, !tbaa !3
  %54 = load i32, ptr %11, align 4, !tbaa !30
  %55 = call noundef i64 @_ZN6duckdb17utf8proc_reencodeEPilNS_17utf8proc_option_tE(ptr noundef %52, i64 noundef %53, i32 noundef %54)
  store i64 %55, ptr %15, align 8, !tbaa !3
  %56 = load i64, ptr %15, align 8, !tbaa !3
  %57 = icmp slt i64 %56, 0
  br i1 %57, label %58, label %61

58:                                               ; preds = %51
  %59 = load ptr, ptr %14, align 8, !tbaa !10
  call void @free(ptr noundef %59) #6
  %60 = load i64, ptr %15, align 8, !tbaa !3
  store i64 %60, ptr %7, align 8
  store i32 1, ptr %16, align 4
  br label %74

61:                                               ; preds = %51
  call void @llvm.lifetime.start.p0(i64 8, ptr %17) #6
  %62 = load ptr, ptr %14, align 8, !tbaa !10
  %63 = load i64, ptr %15, align 8, !tbaa !3
  %64 = add i64 %63, 1
  %65 = call ptr @realloc(ptr noundef %62, i64 noundef %64) #8
  store ptr %65, ptr %17, align 8, !tbaa !10
  %66 = load ptr, ptr %17, align 8, !tbaa !10
  %67 = icmp ne ptr %66, null
  br i1 %67, label %68, label %70

68:                                               ; preds = %61
  %69 = load ptr, ptr %17, align 8, !tbaa !10
  store ptr %69, ptr %14, align 8, !tbaa !10
  br label %70

70:                                               ; preds = %68, %61
  call void @llvm.lifetime.end.p0(i64 8, ptr %17) #6
  %71 = load ptr, ptr %14, align 8, !tbaa !10
  %72 = load ptr, ptr %10, align 8, !tbaa !46
  store ptr %71, ptr %72, align 8, !tbaa !7
  %73 = load i64, ptr %15, align 8, !tbaa !3
  store i64 %73, ptr %7, align 8
  store i32 1, ptr %16, align 4
  br label %74

74:                                               ; preds = %70, %58, %48, %36, %27
  call void @llvm.lifetime.end.p0(i64 8, ptr %15) #6
  call void @llvm.lifetime.end.p0(i64 8, ptr %14) #6
  %75 = load i64, ptr %7, align 8
  ret i64 %75
}