; Function Attrs: mustprogress uwtable
define noundef i64 @_ZN6duckdb19utf8proc_map_customEPKhlPPhNS_17utf8proc_option_tEPFiiPvES5_(ptr noundef readonly captures(none) %0, i64 noundef %1, ptr noundef writeonly captures(none) initializes((0, 8)) %2, i32 noundef %3, ptr noundef captures(address_is_null) %4, ptr noundef %5) local_unnamed_addr #5 {
  store ptr null, ptr %2, align 8, !tbaa !28
  %7 = tail call noundef i64 @_ZN6duckdb25utf8proc_decompose_customEPKhlPilNS_17utf8proc_option_tEPFiiPvES4_(ptr noundef %0, i64 noundef %1, ptr noundef null, i64 noundef 0, i32 noundef %3, ptr noundef %4, ptr noundef %5)
  %8 = icmp slt i64 %7, 0
  br i1 %8, label %24, label %9

9:                                                ; preds = %6
  %10 = shl i64 %7, 2
  %11 = or disjoint i64 %10, 1
  %12 = tail call noalias ptr @malloc(i64 noundef %11) #12
  %.not = icmp eq ptr %12, null
  br i1 %.not, label %24, label %13

13:                                               ; preds = %9
  %14 = tail call noundef i64 @_ZN6duckdb25utf8proc_decompose_customEPKhlPilNS_17utf8proc_option_tEPFiiPvES4_(ptr noundef %0, i64 noundef %1, ptr noundef nonnull %12, i64 noundef %7, i32 noundef %3, ptr noundef %4, ptr noundef %5)
  %15 = icmp slt i64 %14, 0
  br i1 %15, label %16, label %17

16:                                               ; preds = %13
  tail call void @free(ptr noundef nonnull %12) #11
  br label %24

17:                                               ; preds = %13
  %18 = tail call noundef i64 @_ZN6duckdb17utf8proc_reencodeEPilNS_17utf8proc_option_tE(ptr noundef nonnull %12, i64 noundef %14, i32 noundef %3)
  %19 = icmp slt i64 %18, 0
  br i1 %19, label %20, label %21

20:                                               ; preds = %17
  tail call void @free(ptr noundef nonnull %12) #11
  br label %24

21:                                               ; preds = %17
  %22 = add nuw i64 %18, 1
  %23 = tail call ptr @realloc(ptr noundef nonnull %12, i64 noundef %22) #13
  %.not41 = icmp eq ptr %23, null
  %spec.select = select i1 %.not41, ptr %12, ptr %23
  store ptr %spec.select, ptr %2, align 8, !tbaa !28
  br label %24

24:                                               ; preds = %9, %6, %21, %20, %16
  %.0 = phi i64 [ %14, %16 ], [ %18, %20 ], [ %18, %21 ], [ %7, %6 ], [ -1, %9 ]
  ret i64 %.0
}